target datalayout = "e-m:e-p270:32:32-p271:32:32-p272:64:64-i64:64-i128:128-f80:128-n8:16:32:64-S128"
target triple = "x86_64-pc-linux-gnu"

@tty = external global ptr, align 8
@.str.18 = private unnamed_addr constant [30 x i8] c"0x%016lx: lea [reg + %x], reg\00", align 1

; Function Attrs: mustprogress nounwind uwtable
define linkonce_odr hidden noundef zeroext i8 @_ZNK17NativeInstruction8ubyte_atEi(ptr noundef nonnull align 1 dereferenceable(1) %0, i32 noundef %1) #1 comdat align 2 {
  %3 = alloca ptr, align 8
  %4 = alloca i32, align 4
  store ptr %0, ptr %3, align 8
  store i32 %1, ptr %4, align 4
  %5 = load ptr, ptr %3, align 8
  %6 = load i32, ptr %4, align 4
  %7 = call noundef ptr @_ZNK17NativeInstruction7addr_atEi(ptr noundef nonnull align 1 dereferenceable(1) %5, i32 noundef %6)
  %8 = load i8, ptr %7, align 1
  ret i8 %8
}

; Function Attrs: mustprogress nounwind uwtable
define linkonce_odr hidden noundef i32 @_ZNK17NativeInstruction6int_atEi(ptr noundef nonnull align 1 dereferenceable(1) %0, i32 noundef %1) #1 comdat align 2 {
  %3 = alloca ptr, align 8
  %4 = alloca i32, align 4
  store ptr %0, ptr %3, align 8
  store i32 %1, ptr %4, align 4
  %5 = load ptr, ptr %3, align 8
  %6 = load i32, ptr %4, align 4
  %7 = call noundef ptr @_ZNK17NativeInstruction7addr_atEi(ptr noundef nonnull align 1 dereferenceable(1) %5, i32 noundef %6)
  %8 = load i32, ptr %7, align 4
  ret i32 %8
}

; Function Attrs: mustprogress nounwind uwtable
define linkonce_odr hidden noundef ptr @_ZNK17NativeInstruction7addr_atEi(ptr noundef nonnull align 1 dereferenceable(1) %0, i32 noundef %1) #1 comdat align 2 {
  %3 = alloca ptr, align 8
  %4 = alloca i32, align 4
  store ptr %0, ptr %3, align 8
  store i32 %1, ptr %4, align 4
  %5 = load ptr, ptr %3, align 8
  %6 = load i32, ptr %4, align 4
  %7 = sext i32 %6 to i64
  %8 = getelementptr inbounds i8, ptr %5, i64 %7
  ret ptr %8
}

; Function Attrs: mustprogress nounwind uwtable
define hidden noundef i32 @_ZNK15NativeMovRegMem17instruction_startEv(ptr noundef nonnull align 1 dereferenceable(1) %0) #1 align 2 {
  %2 = alloca i32, align 4
  %3 = alloca ptr, align 8
  %4 = alloca i32, align 4
  %5 = alloca i8, align 1
  store ptr %0, ptr %3, align 8
  %6 = load ptr, ptr %3, align 8
  store i32 0, ptr %4, align 4
  %7 = load i32, ptr %4, align 4
  %8 = call noundef zeroext i8 @_ZNK17NativeInstruction8ubyte_atEi(ptr noundef nonnull align 1 dereferenceable(1) %6, i32 noundef %7)
  store i8 %8, ptr %5, align 1
  %9 = load i8, ptr %5, align 1
  %10 = zext i8 %9 to i32
  %11 = icmp eq i32 %10, 197
  br i1 %11, label %12, label %13

12:                                               ; preds = %1
  store i32 2, ptr %2, align 4
  br label %107

13:                                               ; preds = %1
  %14 = load i8, ptr %5, align 1
  %15 = zext i8 %14 to i32
  %16 = icmp eq i32 %15, 196
  br i1 %16, label %17, label %18

17:                                               ; preds = %13
  store i32 3, ptr %2, align 4
  br label %107

18:                                               ; preds = %13
  %19 = load i8, ptr %5, align 1
  %20 = zext i8 %19 to i32
  %21 = icmp eq i32 %20, 98
  br i1 %21, label %22, label %23

22:                                               ; preds = %18
  store i32 4, ptr %2, align 4
  br label %107

23:                                               ; preds = %18
  %24 = load i8, ptr %5, align 1
  %25 = zext i8 %24 to i32
  %26 = icmp sge i32 %25, 64
  br i1 %26, label %27, label %36

27:                                               ; preds = %23
  %28 = load i8, ptr %5, align 1
  %29 = zext i8 %28 to i32
  %30 = icmp sle i32 %29, 79
  br i1 %30, label %31, label %36

31:                                               ; preds = %27
  %32 = load i32, ptr %4, align 4
  %33 = add nsw i32 %32, 1
  store i32 %33, ptr %4, align 4
  %34 = load i32, ptr %4, align 4
  %35 = call noundef zeroext i8 @_ZNK17NativeInstruction8ubyte_atEi(ptr noundef nonnull align 1 dereferenceable(1) %6, i32 noundef %34)
  store i8 %35, ptr %5, align 1
  br label %36

36:                                               ; preds = %31, %27, %23
  %37 = load i8, ptr %5, align 1
  %38 = zext i8 %37 to i32
  %39 = icmp eq i32 %38, 213
  br i1 %39, label %40, label %45

40:                                               ; preds = %36
  %41 = load i32, ptr %4, align 4
  %42 = add nsw i32 %41, 2
  store i32 %42, ptr %4, align 4
  %43 = load i32, ptr %4, align 4
  %44 = call noundef zeroext i8 @_ZNK17NativeInstruction8ubyte_atEi(ptr noundef nonnull align 1 dereferenceable(1) %6, i32 noundef %43)
  store i8 %44, ptr %5, align 1
  br label %45

45:                                               ; preds = %40, %36
  %46 = load i8, ptr %5, align 1
  %47 = zext i8 %46 to i32
  %48 = icmp eq i32 %47, 51
  br i1 %48, label %49, label %54

49:                                               ; preds = %45
  %50 = load i32, ptr %4, align 4
  %51 = add nsw i32 %50, 2
  store i32 %51, ptr %4, align 4
  %52 = load i32, ptr %4, align 4
  %53 = call noundef zeroext i8 @_ZNK17NativeInstruction8ubyte_atEi(ptr noundef nonnull align 1 dereferenceable(1) %6, i32 noundef %52)
  store i8 %53, ptr %5, align 1
  br label %54

54:                                               ; preds = %49, %45
  %55 = load i8, ptr %5, align 1
  %56 = zext i8 %55 to i32
  %57 = icmp eq i32 %56, 102
  br i1 %57, label %58, label %63

58:                                               ; preds = %54
  %59 = load i32, ptr %4, align 4
  %60 = add nsw i32 %59, 1
  store i32 %60, ptr %4, align 4
  %61 = load i32, ptr %4, align 4
  %62 = call noundef zeroext i8 @_ZNK17NativeInstruction8ubyte_atEi(ptr noundef nonnull align 1 dereferenceable(1) %6, i32 noundef %61)
  store i8 %62, ptr %5, align 1
  br label %63

63:                                               ; preds = %58, %54
  %64 = load i8, ptr %5, align 1
  %65 = zext i8 %64 to i32
  %66 = icmp eq i32 %65, 243
  br i1 %66, label %71, label %67

67:                                               ; preds = %63
  %68 = load i8, ptr %5, align 1
  %69 = zext i8 %68 to i32
  %70 = icmp eq i32 %69, 242
  br i1 %70, label %71, label %76

71:                                               ; preds = %67, %63
  %72 = load i32, ptr %4, align 4
  %73 = add nsw i32 %72, 1
  store i32 %73, ptr %4, align 4
  %74 = load i32, ptr %4, align 4
  %75 = call noundef zeroext i8 @_ZNK17NativeInstruction8ubyte_atEi(ptr noundef nonnull align 1 dereferenceable(1) %6, i32 noundef %74)
  store i8 %75, ptr %5, align 1
  br label %76

76:                                               ; preds = %71, %67
  %77 = load i8, ptr %5, align 1
  %78 = zext i8 %77 to i32
  %79 = icmp eq i32 %78, 213
  br i1 %79, label %80, label %85

80:                                               ; preds = %76
  %81 = load i32, ptr %4, align 4
  %82 = add nsw i32 %81, 2
  store i32 %82, ptr %4, align 4
  %83 = load i32, ptr %4, align 4
  %84 = call noundef zeroext i8 @_ZNK17NativeInstruction8ubyte_atEi(ptr noundef nonnull align 1 dereferenceable(1) %6, i32 noundef %83)
  store i8 %84, ptr %5, align 1
  br label %85

85:                                               ; preds = %80, %76
  %86 = load i8, ptr %5, align 1
  %87 = zext i8 %86 to i32
  %88 = icmp sge i32 %87, 64
  br i1 %88, label %89, label %98

89:                                               ; preds = %85
  %90 = load i8, ptr %5, align 1
  %91 = zext i8 %90 to i32
  %92 = icmp sle i32 %91, 79
  br i1 %92, label %93, label %98

93:                                               ; preds = %89
  %94 = load i32, ptr %4, align 4
  %95 = add nsw i32 %94, 1
  store i32 %95, ptr %4, align 4
  %96 = load i32, ptr %4, align 4
  %97 = call noundef zeroext i8 @_ZNK17NativeInstruction8ubyte_atEi(ptr noundef nonnull align 1 dereferenceable(1) %6, i32 noundef %96)
  store i8 %97, ptr %5, align 1
  br label %98

98:                                               ; preds = %93, %89, %85
  %99 = load i8, ptr %5, align 1
  %100 = zext i8 %99 to i32
  %101 = icmp eq i32 %100, 15
  br i1 %101, label %102, label %105

102:                                              ; preds = %98
  %103 = load i32, ptr %4, align 4
  %104 = add nsw i32 %103, 1
  store i32 %104, ptr %4, align 4
  br label %105

105:                                              ; preds = %102, %98
  %106 = load i32, ptr %4, align 4
  store i32 %106, ptr %2, align 4
  br label %107

107:                                              ; preds = %105, %22, %17, %12
  %108 = load i32, ptr %2, align 4
  ret i32 %108
}

; Function Attrs: mustprogress nounwind uwtable
define linkonce_odr hidden noundef i32 @_ZNK15NativeMovRegMem6offsetEv(ptr noundef nonnull align 1 dereferenceable(1) %0) #1 comdat align 2 {
  %2 = alloca ptr, align 8
  store ptr %0, ptr %2, align 8
  %3 = load ptr, ptr %2, align 8
  %4 = call noundef i32 @_ZNK15NativeMovRegMem12patch_offsetEv(ptr noundef nonnull align 1 dereferenceable(1) %3)
  %5 = call noundef i32 @_ZNK17NativeInstruction6int_atEi(ptr noundef nonnull align 1 dereferenceable(1) %3, i32 noundef %4)
  ret i32 %5
}

; Function Attrs: mustprogress nounwind uwtable
define linkonce_odr hidden noundef i64 @_Z3p2iPVKv(ptr noundef %0) #1 comdat {
  %2 = alloca ptr, align 8
  store ptr %0, ptr %2, align 8
  %3 = load ptr, ptr %2, align 8
  %4 = ptrtoint ptr %3 to i64
  ret i64 %4
}

; Function Attrs: mustprogress nounwind uwtable
define linkonce_odr hidden noundef ptr @_ZNK15NativeMovRegMem19instruction_addressEv(ptr noundef nonnull align 1 dereferenceable(1) %0) #1 comdat align 2 {
  %2 = alloca ptr, align 8
  store ptr %0, ptr %2, align 8
  %3 = load ptr, ptr %2, align 8
  %4 = call noundef i32 @_ZNK15NativeMovRegMem17instruction_startEv(ptr noundef nonnull align 1 dereferenceable(1) %3)
  %5 = call noundef ptr @_ZNK17NativeInstruction7addr_atEi(ptr noundef nonnull align 1 dereferenceable(1) %3, i32 noundef %4)
  ret ptr %5
}

; Function Attrs: mustprogress nounwind uwtable
define hidden void @_ZN17NativeLoadAddress5printEv(ptr noundef nonnull align 1 dereferenceable(1) %0) #1 align 2 {
  %2 = alloca ptr, align 8
  store ptr %0, ptr %2, align 8
  %3 = load ptr, ptr %2, align 8
  %4 = load ptr, ptr @tty, align 8
  %5 = call noundef ptr @_ZNK15NativeMovRegMem19instruction_addressEv(ptr noundef nonnull align 1 dereferenceable(1) %3)
  %6 = call noundef i64 @_Z3p2iPVKv(ptr noundef %5)
  %7 = call noundef i32 @_ZNK15NativeMovRegMem6offsetEv(ptr noundef nonnull align 1 dereferenceable(1) %3)
  call void (ptr, ptr, ...) @_ZN12outputStream8print_crEPKcz(ptr noundef nonnull align 8 dereferenceable(56) %4, ptr noundef @.str.18, i64 noundef %6, i32 noundef %7)
  ret void
}