; Function Attrs: mustprogress nounwind uwtable
define hidden void @_ZN17NativeLoadAddress5printEv(ptr noundef nonnull align 1 dereferenceable(1) %0) local_unnamed_addr #0 align 2 {
  %2 = load ptr, ptr @tty, align 8
  %3 = load i8, ptr %0, align 1
  switch i8 %3, label %6 [
    i8 -59, label %_ZNK15NativeMovRegMem19instruction_addressEv.exit
    i8 -60, label %4
    i8 98, label %5
  ]

4:                                                ; preds = %1
  br label %_ZNK15NativeMovRegMem19instruction_addressEv.exit

5:                                                ; preds = %1
  br label %_ZNK15NativeMovRegMem19instruction_addressEv.exit

6:                                                ; preds = %1
  %7 = and i8 %3, -16
  %or.cond.i.i = icmp eq i8 %7, 64
  br i1 %or.cond.i.i, label %8, label %11

8:                                                ; preds = %6
  %9 = getelementptr inbounds i8, ptr %0, i64 1
  %10 = load i8, ptr %9, align 1
  br label %11

11:                                               ; preds = %8, %6
  %.040.i.i = phi i32 [ 1, %8 ], [ 0, %6 ]
  %.0.i.i = phi i8 [ %10, %8 ], [ %3, %6 ]
  %12 = icmp eq i8 %.0.i.i, -43
  br i1 %12, label %13, label %18

13:                                               ; preds = %11
  %14 = or disjoint i32 %.040.i.i, 2
  %15 = zext nneg i32 %14 to i64
  %16 = getelementptr inbounds i8, ptr %0, i64 %15
  %17 = load i8, ptr %16, align 1
  br label %18

18:                                               ; preds = %13, %11
  %.141.i.i = phi i32 [ %14, %13 ], [ %.040.i.i, %11 ]
  %.1.i.i = phi i8 [ %17, %13 ], [ %.0.i.i, %11 ]
  %19 = icmp eq i8 %.1.i.i, 51
  br i1 %19, label %20, label %25

20:                                               ; preds = %18
  %21 = add nuw nsw i32 %.141.i.i, 2
  %22 = zext nneg i32 %21 to i64
  %23 = getelementptr inbounds i8, ptr %0, i64 %22
  %24 = load i8, ptr %23, align 1
  br label %25

25:                                               ; preds = %20, %18
  %.242.i.i = phi i32 [ %21, %20 ], [ %.141.i.i, %18 ]
  %.2.i.i = phi i8 [ %24, %20 ], [ %.1.i.i, %18 ]
  %26 = icmp eq i8 %.2.i.i, 102
  br i1 %26, label %27, label %32

27:                                               ; preds = %25
  %28 = add nuw nsw i32 %.242.i.i, 1
  %29 = zext nneg i32 %28 to i64
  %30 = getelementptr inbounds i8, ptr %0, i64 %29
  %31 = load i8, ptr %30, align 1
  br label %32

32:                                               ; preds = %27, %25
  %.343.i.i = phi i32 [ %28, %27 ], [ %.242.i.i, %25 ]
  %.3.i.i = phi i8 [ %31, %27 ], [ %.2.i.i, %25 ]
  %33 = and i8 %.3.i.i, -2
  %or.cond5.i.i = icmp eq i8 %33, -14
  br i1 %or.cond5.i.i, label %34, label %39

34:                                               ; preds = %32
  %35 = add nuw nsw i32 %.343.i.i, 1
  %36 = zext nneg i32 %35 to i64
  %37 = getelementptr inbounds i8, ptr %0, i64 %36
  %38 = load i8, ptr %37, align 1
  br label %39

39:                                               ; preds = %34, %32
  %.444.i.i = phi i32 [ %35, %34 ], [ %.343.i.i, %32 ]
  %.4.i.i = phi i8 [ %38, %34 ], [ %.3.i.i, %32 ]
  %40 = icmp eq i8 %.4.i.i, -43
  br i1 %40, label %41, label %46

41:                                               ; preds = %39
  %42 = add nuw nsw i32 %.444.i.i, 2
  %43 = zext nneg i32 %42 to i64
  %44 = getelementptr inbounds i8, ptr %0, i64 %43
  %45 = load i8, ptr %44, align 1
  br label %46

46:                                               ; preds = %41, %39
  %.545.i.i = phi i32 [ %42, %41 ], [ %.444.i.i, %39 ]
  %.5.i.i = phi i8 [ %45, %41 ], [ %.4.i.i, %39 ]
  %47 = and i8 %.5.i.i, -16
  %or.cond8.i.i = icmp eq i8 %47, 64
  br i1 %or.cond8.i.i, label %48, label %53

48:                                               ; preds = %46
  %49 = add nuw nsw i32 %.545.i.i, 1
  %50 = zext nneg i32 %49 to i64
  %51 = getelementptr inbounds i8, ptr %0, i64 %50
  %52 = load i8, ptr %51, align 1
  br label %53

53:                                               ; preds = %48, %46
  %.646.i.i = phi i32 [ %49, %48 ], [ %.545.i.i, %46 ]
  %.6.i.i = phi i8 [ %52, %48 ], [ %.5.i.i, %46 ]
  %54 = icmp eq i8 %.6.i.i, 15
  %55 = zext i1 %54 to i32
  %spec.select.i.i = add nuw nsw i32 %.646.i.i, %55
  %56 = zext nneg i32 %spec.select.i.i to i64
  br label %_ZNK15NativeMovRegMem19instruction_addressEv.exit

_ZNK15NativeMovRegMem19instruction_addressEv.exit: ; preds = %1, %4, %5, %53
  %.047.i.i = phi i64 [ 3, %4 ], [ 4, %5 ], [ %56, %53 ], [ 2, %1 ]
  %57 = getelementptr inbounds i8, ptr %0, i64 %.047.i.i
  %58 = ptrtoint ptr %57 to i64
  %59 = tail call noundef i32 @_ZNK15NativeMovRegMem12patch_offsetEv(ptr noundef nonnull align 1 dereferenceable(1) %0)
  %60 = sext i32 %59 to i64
  %61 = getelementptr inbounds i8, ptr %0, i64 %60
  %62 = load i32, ptr %61, align 4
  tail call void (ptr, ptr, ...) @_ZN12outputStream8print_crEPKcz(ptr noundef nonnull align 8 dereferenceable(56) %2, ptr noundef nonnull @.str.18, i64 noundef %58, i32 noundef %62) #7
  ret void
}